; Function Attrs: mustprogress uwtable
define noalias noundef ptr @_Z24coco_string_create_lowerPKwii(ptr noundef readonly %0, i32 noundef %1, i32 noundef %2) local_unnamed_addr #2 {
  %.not = icmp eq ptr %0, null
  br i1 %.not, label %18, label %4

4:                                                ; preds = %3
  %5 = add i32 %2, 1
  %6 = zext i32 %5 to i64
  %7 = icmp slt i32 %2, -1
  %8 = shl nuw nsw i64 %6, 2
  %9 = select i1 %7, i64 -1, i64 %8
  %10 = tail call noalias noundef nonnull ptr @_Znam(i64 noundef %9) #21
  %.not2425 = icmp slt i32 %2, 0
  br i1 %.not2425, label %._crit_edge, label %.lr.ph.preheader

.lr.ph.preheader:                                 ; preds = %4
  %11 = sext i32 %1 to i64
  %invariant.gep = getelementptr i32, ptr %0, i64 %11
  br label %.lr.ph

.lr.ph:                                           ; preds = %.lr.ph.preheader, %.lr.ph
  %indvars.iv = phi i64 [ 0, %.lr.ph.preheader ], [ %indvars.iv.next, %.lr.ph ]
  %gep = getelementptr i32, ptr %invariant.gep, i64 %indvars.iv
  %12 = load i32, ptr %gep, align 4
  %13 = add i32 %12, -65
  %or.cond = icmp ult i32 %13, 26
  %14 = or disjoint i32 %12, 32
  %spec.select = select i1 %or.cond, i32 %14, i32 %12
  %15 = getelementptr inbounds i32, ptr %10, i64 %indvars.iv
  store i32 %spec.select, ptr %15, align 4
  %indvars.iv.next = add nuw nsw i64 %indvars.iv, 1
  %exitcond.not = icmp eq i64 %indvars.iv.next, %6
  br i1 %exitcond.not, label %._crit_edge, label %.lr.ph, !llvm.loop !10

._crit_edge:                                      ; preds = %.lr.ph, %4
  %16 = sext i32 %2 to i64
  %17 = getelementptr inbounds i32, ptr %10, i64 %16
  store i32 0, ptr %17, align 4
  br label %18

18:                                               ; preds = %3, %._crit_edge
  %.0 = phi ptr [ %10, %._crit_edge ], [ null, %3 ]
  ret ptr %.0
}